(lp0
S'poi'
p1
aS'exercised_stock_options'
p2
aS'total_stock_value'
p3
aS'total_bonus_salary'
p4
aS'bonus'
p5
aS'salary'
p6
aS'fraction_emails_to_poi'
p7
aS'restricted_stock'
p8
aS'total_payments'
p9
aS'shared_receipt_with_poi'
p10
aS'expenses'
p11
a.